target datalayout = "e-m:e-p270:32:32-p271:32:32-p272:64:64-i64:64-i128:128-f80:128-n8:16:32:64-S128"
target triple = "x86_64-pc-linux-gnu"

; Function Attrs: nounwind uwtable
define i32 @Gia_GetMValue(i32 noundef %0, i32 noundef %1, i32 noundef %2, i32 noundef %3) #0 {
  %5 = alloca i32, align 4
  %6 = alloca i32, align 4
  %7 = alloca i32, align 4
  %8 = alloca i32, align 4
  %9 = alloca i32, align 4
  store i32 %0, ptr %6, align 4
  store i32 %1, ptr %7, align 4
  store i32 %2, ptr %8, align 4
  store i32 %3, ptr %9, align 4
  %10 = load i32, ptr %6, align 4
  %11 = load i32, ptr %7, align 4
  %12 = icmp slt i32 %10, %11
  br i1 %12, label %13, label %18

13:                                               ; preds = %4
  %14 = load i32, ptr %8, align 4
  %15 = load i32, ptr %6, align 4
  %16 = ashr i32 %14, %15
  %17 = and i32 %16, 1
  store i32 %17, ptr %5, align 4
  br label %43

18:                                               ; preds = %4
  %19 = load i32, ptr %6, align 4
  %20 = load i32, ptr %7, align 4
  %21 = icmp eq i32 %19, %20
  br i1 %21, label %22, label %42

22:                                               ; preds = %18
  %23 = load i32, ptr %8, align 4
  %24 = load i32, ptr %7, align 4
  %25 = shl i32 1, %24
  %26 = icmp slt i32 %23, %25
  br i1 %26, label %27, label %32

27:                                               ; preds = %22
  %28 = load i32, ptr %9, align 4
  %29 = load i32, ptr %8, align 4
  %30 = lshr i32 %28, %29
  %31 = and i32 %30, 1
  store i32 %31, ptr %5, align 4
  br label %43

32:                                               ; preds = %22
  %33 = load i32, ptr %9, align 4
  %34 = load i32, ptr %8, align 4
  %35 = load i32, ptr %7, align 4
  %36 = shl i32 1, %35
  %37 = sub nsw i32 %34, %36
  %38 = lshr i32 %33, %37
  %39 = and i32 %38, 1
  %40 = icmp eq i32 %39, 0
  %41 = zext i1 %40 to i32
  store i32 %41, ptr %5, align 4
  br label %43

42:                                               ; preds = %18
  store i32 1, ptr %5, align 4
  br label %43

43:                                               ; preds = %42, %32, %27, %13
  %44 = load i32, ptr %5, align 4
  ret i32 %44
}