; Function Attrs: mustprogress nofree norecurse nosync nounwind willreturn memory(none) uwtable
define range(i32 0, 2) i32 @Gia_GetMValue(i32 noundef %0, i32 noundef %1, i32 noundef %2, i32 noundef %3) local_unnamed_addr #11 {
  %5 = icmp slt i32 %0, %1
  br i1 %5, label %6, label %9

6:                                                ; preds = %4
  %7 = lshr i32 %2, %0
  %8 = and i32 %7, 1
  br label %22

9:                                                ; preds = %4
  %10 = icmp eq i32 %0, %1
  br i1 %10, label %11, label %22

11:                                               ; preds = %9
  %12 = shl nuw i32 1, %0
  %13 = icmp slt i32 %2, %12
  br i1 %13, label %14, label %17

14:                                               ; preds = %11
  %15 = lshr i32 %3, %2
  %16 = and i32 %15, 1
  br label %22

17:                                               ; preds = %11
  %18 = sub nsw i32 %2, %12
  %19 = xor i32 %3, -1
  %20 = lshr i32 %19, %18
  %21 = and i32 %20, 1
  br label %22

22:                                               ; preds = %9, %17, %14, %6
  %.0 = phi i32 [ %8, %6 ], [ %16, %14 ], [ %21, %17 ], [ 1, %9 ]
  ret i32 %.0
}